target datalayout = "e-m:e-p270:32:32-p271:32:32-p272:64:64-i64:64-i128:128-f80:128-n8:16:32:64-S128"
target triple = "x86_64-pc-linux-gnu"

%"class.logging::CheckOpResult" = type { ptr }
%"class.logging::LogMessage" = type <{ i32, [4 x i8], %"class.std::__cxx11::basic_ostringstream", i64, ptr, i32, [4 x i8] }>
%"class.std::__cxx11::basic_ostringstream" = type { %"class.std::basic_ostream.base", %"class.std::__cxx11::basic_stringbuf", %"class.std::basic_ios" }
%"class.std::basic_ostream.base" = type { ptr }
%"class.std::__cxx11::basic_stringbuf" = type { %"class.std::basic_streambuf", i32, %"class.std::__cxx11::basic_string" }
%"class.std::basic_streambuf" = type { ptr, ptr, ptr, ptr, ptr, ptr, ptr, %"class.std::locale" }
%"class.std::locale" = type { ptr }
%"class.std::__cxx11::basic_string" = type { %"struct.std::__cxx11::basic_string<char>::_Alloc_hider", i64, %union.anon }
%"struct.std::__cxx11::basic_string<char>::_Alloc_hider" = type { ptr }
%union.anon = type { i64, [8 x i8] }
%"class.std::basic_ios" = type { %"class.std::ios_base", ptr, i8, i8, ptr, ptr, ptr, ptr }
%"class.std::ios_base" = type { ptr, i64, i64, i32, i32, i32, ptr, %"struct.std::ios_base::_Words", [8 x %"struct.std::ios_base::_Words"], i32, ptr, %"class.std::locale" }
%"struct.std::ios_base::_Words" = type { ptr, i64 }
%"class.base::PickleSizer" = type { i64 }

@.str = private unnamed_addr constant [112 x i8] c"generated/home/dtcxzyw/WorkSpace/Projects/compilers/llvm-opt-benchmark/bench/libquic/libquic/src/base/pickle.cc\00", align 1
@.str.1 = private unnamed_addr constant [12 x i8] c"length >= 0\00", align 1
@.str.4 = private unnamed_addr constant [109 x i8] c"generated/home/dtcxzyw/WorkSpace/Projects/compilers/llvm-opt-benchmark/bench/libquic/libquic/src/base/bits.h\00", align 1

; Function Attrs: mustprogress uwtable
define weak_odr void @_ZN4base11PickleSizer14AddBytesStaticILm4EEEvv(ptr noundef nonnull align 8 dereferenceable(8) %0) #0 comdat align 2 personality ptr @__gxx_personality_v0 {
  %2 = alloca ptr, align 8
  %3 = alloca %"class.logging::CheckOpResult", align 8
  %4 = alloca %"class.logging::LogMessage", align 8
  %5 = alloca ptr, align 8
  %6 = alloca i32, align 4
  store ptr %0, ptr %2, align 8, !tbaa !3
  %7 = load ptr, ptr %2, align 8
  call void @llvm.lifetime.start.p0(i64 8, ptr %3) #11
  call void @_ZN7logging13CheckOpResultC2EPNSt7__cxx1112basic_stringIcSt11char_traitsIcESaIcEEE(ptr noundef nonnull align 8 dereferenceable(8) %3, ptr noundef null)
  %8 = call noundef zeroext i1 @_ZNK7logging13CheckOpResultcvbEv(ptr noundef nonnull align 8 dereferenceable(8) %3)
  br i1 %8, label %9, label %10

9:                                                ; preds = %1
  br label %18

10:                                               ; preds = %1
  call void @llvm.lifetime.start.p0(i64 408, ptr %4) #11
  %11 = call noundef ptr @_ZN7logging13CheckOpResult7messageB5cxx11Ev(ptr noundef nonnull align 8 dereferenceable(8) %3)
  call void @_ZN7logging10LogMessageC1EPKciiPNSt7__cxx1112basic_stringIcSt11char_traitsIcESaIcEEE(ptr noundef nonnull align 8 dereferenceable(404) %4, ptr noundef @.str, i32 noundef 241, i32 noundef 0, ptr noundef %11)
  %12 = invoke noundef nonnull align 8 dereferenceable(8) ptr @_ZN7logging10LogMessage6streamEv(ptr noundef nonnull align 8 dereferenceable(404) %4)
          to label %13 unwind label %14

13:                                               ; preds = %10
  call void @_ZN7logging10LogMessageD1Ev(ptr noundef nonnull align 8 dereferenceable(404) %4) #11
  call void @llvm.lifetime.end.p0(i64 408, ptr %4) #11
  br label %18

14:                                               ; preds = %10
  %15 = landingpad { ptr, i32 }
          cleanup
  %16 = extractvalue { ptr, i32 } %15, 0
  store ptr %16, ptr %5, align 8
  %17 = extractvalue { ptr, i32 } %15, 1
  store i32 %17, ptr %6, align 4
  call void @_ZN7logging10LogMessageD1Ev(ptr noundef nonnull align 8 dereferenceable(404) %4) #11
  call void @llvm.lifetime.end.p0(i64 408, ptr %4) #11
  call void @llvm.lifetime.end.p0(i64 8, ptr %3) #11
  br label %19

18:                                               ; preds = %13, %9
  call void @llvm.lifetime.end.p0(i64 8, ptr %3) #11
  call void @_ZN4base11PickleSizer8AddBytesEi(ptr noundef nonnull align 8 dereferenceable(8) %7, i32 noundef 4)
  ret void

19:                                               ; preds = %14
  %20 = load ptr, ptr %5, align 8
  %21 = load i32, ptr %6, align 4
  %22 = insertvalue { ptr, i32 } poison, ptr %20, 0
  %23 = insertvalue { ptr, i32 } %22, i32 %21, 1
  resume { ptr, i32 } %23
}

; Function Attrs: inlinehint mustprogress uwtable
define linkonce_odr noundef i64 @_ZN4base4bits5AlignEmm(i64 noundef %0, i64 noundef %1) #5 comdat {
  %3 = alloca i64, align 8
  %4 = alloca i64, align 8
  %5 = alloca %"class.logging::CheckOpResult", align 8
  %6 = alloca %"class.logging::LogMessage", align 8
  store i64 %0, ptr %3, align 8, !tbaa !24
  store i64 %1, ptr %4, align 8, !tbaa !24
  call void @llvm.lifetime.start.p0(i64 8, ptr %5) #11
  call void @_ZN7logging13CheckOpResultC2EPNSt7__cxx1112basic_stringIcSt11char_traitsIcESaIcEEE(ptr noundef nonnull align 8 dereferenceable(8) %5, ptr noundef null)
  %7 = call noundef zeroext i1 @_ZNK7logging13CheckOpResultcvbEv(ptr noundef nonnull align 8 dereferenceable(8) %5)
  br i1 %7, label %8, label %9

8:                                                ; preds = %2
  br label %12

9:                                                ; preds = %2
  call void @llvm.lifetime.start.p0(i64 408, ptr %6) #11
  %10 = call noundef ptr @_ZN7logging13CheckOpResult7messageB5cxx11Ev(ptr noundef nonnull align 8 dereferenceable(8) %5)
  call void @_ZN7logging10LogMessageC1EPKciiPNSt7__cxx1112basic_stringIcSt11char_traitsIcESaIcEEE(ptr noundef nonnull align 8 dereferenceable(404) %6, ptr noundef @.str.4, i32 noundef 48, i32 noundef 0, ptr noundef %10)
  %11 = call noundef nonnull align 8 dereferenceable(8) ptr @_ZN7logging10LogMessage6streamEv(ptr noundef nonnull align 8 dereferenceable(404) %6)
  call void @_ZN7logging10LogMessageD1Ev(ptr noundef nonnull align 8 dereferenceable(404) %6) #11
  call void @llvm.lifetime.end.p0(i64 408, ptr %6) #11
  br label %12

12:                                               ; preds = %9, %8
  call void @llvm.lifetime.end.p0(i64 8, ptr %5) #11
  %13 = load i64, ptr %3, align 8, !tbaa !24
  %14 = load i64, ptr %4, align 8, !tbaa !24
  %15 = add i64 %13, %14
  %16 = sub i64 %15, 1
  %17 = load i64, ptr %4, align 8, !tbaa !24
  %18 = sub i64 %17, 1
  %19 = xor i64 %18, -1
  %20 = and i64 %16, %19
  ret i64 %20
}

; Function Attrs: mustprogress uwtable
define linkonce_odr void @_ZN4base11PickleSizer6AddPODIiEEvv(ptr noundef nonnull align 8 dereferenceable(8) %0) #0 comdat align 2 {
  %2 = alloca ptr, align 8
  store ptr %0, ptr %2, align 8, !tbaa !3
  %3 = load ptr, ptr %2, align 8
  call void @_ZN4base11PickleSizer14AddBytesStaticILm4EEEvv(ptr noundef nonnull align 8 dereferenceable(8) %3)
  ret void
}

; Function Attrs: mustprogress uwtable
define void @_ZN4base11PickleSizer8AddBytesEi(ptr noundef nonnull align 8 dereferenceable(8) %0, i32 noundef %1) #0 align 2 {
  %3 = alloca ptr, align 8
  %4 = alloca i32, align 4
  store ptr %0, ptr %3, align 8, !tbaa !3
  store i32 %1, ptr %4, align 4, !tbaa !16
  %5 = load ptr, ptr %3, align 8
  %6 = load i32, ptr %4, align 4, !tbaa !16
  %7 = sext i32 %6 to i64
  %8 = call noundef i64 @_ZN4base4bits5AlignEmm(i64 noundef %7, i64 noundef 4)
  %9 = getelementptr inbounds nuw %"class.base::PickleSizer", ptr %5, i32 0, i32 0
  %10 = load i64, ptr %9, align 8, !tbaa !18
  %11 = add i64 %10, %8
  store i64 %11, ptr %9, align 8, !tbaa !18
  ret void
}

; Function Attrs: mustprogress uwtable
define linkonce_odr void @_ZN4base11PickleSizer6AddIntEv(ptr noundef nonnull align 8 dereferenceable(8) %0) #0 comdat align 2 {
  %2 = alloca ptr, align 8
  store ptr %0, ptr %2, align 8, !tbaa !3
  %3 = load ptr, ptr %2, align 8
  call void @_ZN4base11PickleSizer6AddPODIiEEvv(ptr noundef nonnull align 8 dereferenceable(8) %3)
  ret void
}

; Function Attrs: mustprogress nounwind uwtable
define linkonce_odr noundef nonnull align 8 dereferenceable(8) ptr @_ZN7logging10LogMessage6streamEv(ptr noundef nonnull align 8 dereferenceable(404) %0) #2 comdat align 2 {
  %2 = alloca ptr, align 8
  store ptr %0, ptr %2, align 8, !tbaa !14
  %3 = load ptr, ptr %2, align 8
  %4 = getelementptr inbounds nuw %"class.logging::LogMessage", ptr %3, i32 0, i32 2
  ret ptr %4
}

; Function Attrs: mustprogress nounwind uwtable
define linkonce_odr noundef ptr @_ZN7logging13CheckOpResult7messageB5cxx11Ev(ptr noundef nonnull align 8 dereferenceable(8) %0) #2 comdat align 2 {
  %2 = alloca ptr, align 8
  store ptr %0, ptr %2, align 8, !tbaa !8
  %3 = load ptr, ptr %2, align 8
  %4 = getelementptr inbounds nuw %"class.logging::CheckOpResult", ptr %3, i32 0, i32 0
  %5 = load ptr, ptr %4, align 8, !tbaa !12
  ret ptr %5
}

; Function Attrs: mustprogress nounwind uwtable
define linkonce_odr noundef zeroext i1 @_ZNK7logging13CheckOpResultcvbEv(ptr noundef nonnull align 8 dereferenceable(8) %0) #2 comdat align 2 {
  %2 = alloca ptr, align 8
  store ptr %0, ptr %2, align 8, !tbaa !8
  %3 = load ptr, ptr %2, align 8
  %4 = getelementptr inbounds nuw %"class.logging::CheckOpResult", ptr %3, i32 0, i32 0
  %5 = load ptr, ptr %4, align 8, !tbaa !12
  %6 = icmp ne ptr %5, null
  %7 = xor i1 %6, true
  ret i1 %7
}

; Function Attrs: mustprogress nounwind uwtable
define linkonce_odr void @_ZN7logging13CheckOpResultC2EPNSt7__cxx1112basic_stringIcSt11char_traitsIcESaIcEEE(ptr noundef nonnull align 8 dereferenceable(8) %0, ptr noundef %1) unnamed_addr #2 comdat align 2 {
  %3 = alloca ptr, align 8
  %4 = alloca ptr, align 8
  store ptr %0, ptr %3, align 8, !tbaa !8
  store ptr %1, ptr %4, align 8, !tbaa !10
  %5 = load ptr, ptr %3, align 8
  %6 = getelementptr inbounds nuw %"class.logging::CheckOpResult", ptr %5, i32 0, i32 0
  %7 = load ptr, ptr %4, align 8, !tbaa !10
  store ptr %7, ptr %6, align 8, !tbaa !12
  ret void
}

; Function Attrs: inlinehint mustprogress uwtable
define linkonce_odr noundef ptr @_ZN7logging11CheckGEImplB5cxx11EiiPKc(i32 noundef %0, i32 noundef %1, ptr noundef %2) #5 comdat {
  %4 = alloca ptr, align 8
  %5 = alloca i32, align 4
  %6 = alloca i32, align 4
  %7 = alloca ptr, align 8
  store i32 %0, ptr %5, align 4, !tbaa !16
  store i32 %1, ptr %6, align 4, !tbaa !16
  store ptr %2, ptr %7, align 8, !tbaa !38
  %8 = load i32, ptr %5, align 4, !tbaa !16
  %9 = load i32, ptr %6, align 4, !tbaa !16
  %10 = icmp sge i32 %8, %9
  br i1 %10, label %11, label %12

11:                                               ; preds = %3
  store ptr null, ptr %4, align 8
  br label %15

12:                                               ; preds = %3
  %13 = load ptr, ptr %7, align 8, !tbaa !38
  %14 = call noundef ptr @_ZN7logging17MakeCheckOpStringIiiEEPNSt7__cxx1112basic_stringIcSt11char_traitsIcESaIcEEERKT_RKT0_PKc(ptr noundef nonnull align 4 dereferenceable(4) %5, ptr noundef nonnull align 4 dereferenceable(4) %6, ptr noundef %13)
  store ptr %14, ptr %4, align 8
  br label %15

15:                                               ; preds = %12, %11
  %16 = load ptr, ptr %4, align 8
  ret ptr %16
}

; Function Attrs: mustprogress uwtable
define void @_ZN4base11PickleSizer7AddDataEi(ptr noundef nonnull align 8 dereferenceable(8) %0, i32 noundef %1) #0 align 2 personality ptr @__gxx_personality_v0 {
  %3 = alloca ptr, align 8
  %4 = alloca i32, align 4
  %5 = alloca %"class.logging::CheckOpResult", align 8
  %6 = alloca %"class.logging::LogMessage", align 8
  %7 = alloca ptr, align 8
  %8 = alloca i32, align 4
  store ptr %0, ptr %3, align 8, !tbaa !3
  store i32 %1, ptr %4, align 4, !tbaa !16
  %9 = load ptr, ptr %3, align 8
  call void @llvm.lifetime.start.p0(i64 8, ptr %5) #11
  %10 = load i32, ptr %4, align 4, !tbaa !16
  %11 = call noundef ptr @_ZN7logging11CheckGEImplB5cxx11EiiPKc(i32 noundef %10, i32 noundef 0, ptr noundef @.str.1)
  call void @_ZN7logging13CheckOpResultC2EPNSt7__cxx1112basic_stringIcSt11char_traitsIcESaIcEEE(ptr noundef nonnull align 8 dereferenceable(8) %5, ptr noundef %11)
  %12 = call noundef zeroext i1 @_ZNK7logging13CheckOpResultcvbEv(ptr noundef nonnull align 8 dereferenceable(8) %5)
  br i1 %12, label %13, label %14

13:                                               ; preds = %2
  br label %22

14:                                               ; preds = %2
  call void @llvm.lifetime.start.p0(i64 408, ptr %6) #11
  %15 = call noundef ptr @_ZN7logging13CheckOpResult7messageB5cxx11Ev(ptr noundef nonnull align 8 dereferenceable(8) %5)
  call void @_ZN7logging10LogMessageC1EPKciPNSt7__cxx1112basic_stringIcSt11char_traitsIcESaIcEEE(ptr noundef nonnull align 8 dereferenceable(404) %6, ptr noundef @.str, i32 noundef 225, ptr noundef %15)
  %16 = invoke noundef nonnull align 8 dereferenceable(8) ptr @_ZN7logging10LogMessage6streamEv(ptr noundef nonnull align 8 dereferenceable(404) %6)
          to label %17 unwind label %18

17:                                               ; preds = %14
  call void @_ZN7logging10LogMessageD1Ev(ptr noundef nonnull align 8 dereferenceable(404) %6) #11
  call void @llvm.lifetime.end.p0(i64 408, ptr %6) #11
  br label %22

18:                                               ; preds = %14
  %19 = landingpad { ptr, i32 }
          cleanup
  %20 = extractvalue { ptr, i32 } %19, 0
  store ptr %20, ptr %7, align 8
  %21 = extractvalue { ptr, i32 } %19, 1
  store i32 %21, ptr %8, align 4
  call void @_ZN7logging10LogMessageD1Ev(ptr noundef nonnull align 8 dereferenceable(404) %6) #11
  call void @llvm.lifetime.end.p0(i64 408, ptr %6) #11
  call void @llvm.lifetime.end.p0(i64 8, ptr %5) #11
  br label %24

22:                                               ; preds = %17, %13
  call void @llvm.lifetime.end.p0(i64 8, ptr %5) #11
  call void @_ZN4base11PickleSizer6AddIntEv(ptr noundef nonnull align 8 dereferenceable(8) %9)
  %23 = load i32, ptr %4, align 4, !tbaa !16
  call void @_ZN4base11PickleSizer8AddBytesEi(ptr noundef nonnull align 8 dereferenceable(8) %9, i32 noundef %23)
  ret void

24:                                               ; preds = %18
  %25 = load ptr, ptr %7, align 8
  %26 = load i32, ptr %8, align 4
  %27 = insertvalue { ptr, i32 } poison, ptr %25, 0
  %28 = insertvalue { ptr, i32 } %27, i32 %26, 1
  resume { ptr, i32 } %28
}