; Function Attrs: mustprogress uwtable
define void @_ZN4base11PickleSizer7AddDataEi(ptr noundef nonnull align 8 captures(none) dereferenceable(8) %0, i32 noundef %1) local_unnamed_addr #0 align 2 personality ptr @__gxx_personality_v0 {
  %3 = alloca i32, align 4
  %4 = alloca i32, align 4
  %5 = alloca %"class.logging::LogMessage", align 8
  call void @llvm.lifetime.start.p0(i64 4, ptr nonnull %3)
  call void @llvm.lifetime.start.p0(i64 4, ptr nonnull %4)
  store i32 %1, ptr %3, align 4, !tbaa !27
  store i32 0, ptr %4, align 4, !tbaa !27
  %.not.i = icmp slt i32 %1, 0
  br i1 %.not.i, label %_ZN7logging11CheckGEImplB5cxx11EiiPKc.exit, label %_ZN7logging11CheckGEImplB5cxx11EiiPKc.exit.thread

_ZN7logging11CheckGEImplB5cxx11EiiPKc.exit.thread: ; preds = %2
  call void @llvm.lifetime.end.p0(i64 4, ptr nonnull %3)
  call void @llvm.lifetime.end.p0(i64 4, ptr nonnull %4)
  br label %8

_ZN7logging11CheckGEImplB5cxx11EiiPKc.exit:       ; preds = %2
  %6 = call noundef ptr @_ZN7logging17MakeCheckOpStringIiiEEPNSt7__cxx1112basic_stringIcSt11char_traitsIcESaIcEEERKT_RKT0_PKc(ptr noundef nonnull align 4 dereferenceable(4) %3, ptr noundef nonnull align 4 dereferenceable(4) %4, ptr noundef nonnull @.str.1)
  call void @llvm.lifetime.end.p0(i64 4, ptr nonnull %3)
  call void @llvm.lifetime.end.p0(i64 4, ptr nonnull %4)
  %.not.i2 = icmp eq ptr %6, null
  br i1 %.not.i2, label %8, label %7

7:                                                ; preds = %_ZN7logging11CheckGEImplB5cxx11EiiPKc.exit
  call void @llvm.lifetime.start.p0(i64 408, ptr nonnull %5) #17
  call void @_ZN7logging10LogMessageC1EPKciPNSt7__cxx1112basic_stringIcSt11char_traitsIcESaIcEEE(ptr noundef nonnull align 8 dereferenceable(404) %5, ptr noundef nonnull @.str, i32 noundef 225, ptr noundef nonnull %6)
  call void @_ZN7logging10LogMessageD1Ev(ptr noundef nonnull align 8 dereferenceable(404) %5) #17
  call void @llvm.lifetime.end.p0(i64 408, ptr nonnull %5) #17
  br label %8

8:                                                ; preds = %_ZN7logging11CheckGEImplB5cxx11EiiPKc.exit.thread, %_ZN7logging11CheckGEImplB5cxx11EiiPKc.exit, %7
  %9 = load i64, ptr %0, align 8, !tbaa !3
  %10 = sext i32 %1 to i64
  %11 = add nsw i64 %10, 3
  %12 = and i64 %11, -4
  %13 = add nsw i64 %12, 4
  %14 = add i64 %13, %9
  store i64 %14, ptr %0, align 8, !tbaa !3
  ret void
}